; Function Attrs: mustprogress uwtable
define internal noundef zeroext i1 @"_ZNSt17_Function_handlerIFbvEZ4mainE3$_5E9_M_invokeERKSt9_Any_data"(ptr nocapture noundef nonnull align 8 dereferenceable(16) %__functor) #6 align 2 {
entry:
  %call.i.i.i = tail call noundef nonnull align 8 dereferenceable(8) ptr @_ZStlsISt11char_traitsIcEERSt13basic_ostreamIcT_ES5_PKc(ptr noundef nonnull align 8 dereferenceable(8) @_ZSt4cout, ptr noundef nonnull @.str.102)
  %0 = load i32, ptr %__functor, align 8
  %call2.i.i.i = tail call noundef nonnull align 8 dereferenceable(8) ptr @_ZNSolsEi(ptr noundef nonnull align 8 dereferenceable(8) %call.i.i.i, i32 noundef %0)
  %call3.i.i.i = tail call noundef nonnull align 8 dereferenceable(8) ptr @_ZNSolsEPFRSoS_E(ptr noundef nonnull align 8 dereferenceable(8) %call2.i.i.i, ptr noundef nonnull @_ZSt4endlIcSt11char_traitsIcEERSt13basic_ostreamIT_T0_ES6_)
  %1 = load i32, ptr %__functor, align 8
  %dec.i.i.i = add nsw i32 %1, -1
  store i32 %dec.i.i.i, ptr %__functor, align 8
  %cmp.i.i.i = icmp eq i32 %1, 0
  ret i1 %cmp.i.i.i
}